target datalayout = "e-m:e-p270:32:32-p271:32:32-p272:64:64-i64:64-i128:128-f80:128-n8:16:32:64-S128"
target triple = "x86_64-pc-linux-gnu"

%struct.bignum_st = type { ptr, i32, i32, i32, i32 }

; Function Attrs: nounwind uwtable
define hidden void @BN_clear_free(ptr noundef %0) #0 {
  %2 = alloca ptr, align 8
  %3 = alloca i8, align 1
  %4 = alloca i32, align 4
  store ptr %0, ptr %2, align 8, !tbaa !6
  call void @llvm.lifetime.start.p0(i64 1, ptr %3) #7
  %5 = load ptr, ptr %2, align 8, !tbaa !6
  %6 = icmp eq ptr %5, null
  br i1 %6, label %7, label %8

7:                                                ; preds = %1
  store i32 1, ptr %4, align 4
  br label %46

8:                                                ; preds = %1
  %9 = load ptr, ptr %2, align 8, !tbaa !6
  %10 = getelementptr inbounds nuw %struct.bignum_st, ptr %9, i32 0, i32 0
  %11 = load ptr, ptr %10, align 8, !tbaa !15
  %12 = icmp ne ptr %11, null
  br i1 %12, label %13, label %32

13:                                               ; preds = %8
  %14 = load ptr, ptr %2, align 8, !tbaa !6
  %15 = getelementptr inbounds nuw %struct.bignum_st, ptr %14, i32 0, i32 0
  %16 = load ptr, ptr %15, align 8, !tbaa !15
  %17 = load ptr, ptr %2, align 8, !tbaa !6
  %18 = getelementptr inbounds nuw %struct.bignum_st, ptr %17, i32 0, i32 2
  %19 = load i32, ptr %18, align 4, !tbaa !16
  %20 = sext i32 %19 to i64
  %21 = mul i64 %20, 8
  call void @OPENSSL_cleanse(ptr noundef %16, i64 noundef %21)
  %22 = load ptr, ptr %2, align 8, !tbaa !6
  %23 = getelementptr inbounds nuw %struct.bignum_st, ptr %22, i32 0, i32 4
  %24 = load i32, ptr %23, align 4, !tbaa !11
  %25 = and i32 %24, 2
  %26 = icmp eq i32 %25, 0
  br i1 %26, label %27, label %31

27:                                               ; preds = %13
  %28 = load ptr, ptr %2, align 8, !tbaa !6
  %29 = getelementptr inbounds nuw %struct.bignum_st, ptr %28, i32 0, i32 0
  %30 = load ptr, ptr %29, align 8, !tbaa !15
  call void @free(ptr noundef %30) #7
  br label %31

31:                                               ; preds = %27, %13
  br label %32

32:                                               ; preds = %31, %8
  %33 = load ptr, ptr %2, align 8, !tbaa !6
  %34 = getelementptr inbounds nuw %struct.bignum_st, ptr %33, i32 0, i32 4
  %35 = load i32, ptr %34, align 4, !tbaa !11
  %36 = and i32 %35, 1
  %37 = icmp ne i32 %36, 0
  %38 = zext i1 %37 to i32
  %39 = trunc i32 %38 to i8
  store i8 %39, ptr %3, align 1, !tbaa !17
  %40 = load ptr, ptr %2, align 8, !tbaa !6
  call void @OPENSSL_cleanse(ptr noundef %40, i64 noundef 24)
  %41 = load i8, ptr %3, align 1, !tbaa !17
  %42 = icmp ne i8 %41, 0
  br i1 %42, label %43, label %45

43:                                               ; preds = %32
  %44 = load ptr, ptr %2, align 8, !tbaa !6
  call void @free(ptr noundef %44) #7
  br label %45

45:                                               ; preds = %43, %32
  store i32 0, ptr %4, align 4
  br label %46

46:                                               ; preds = %45, %7
  call void @llvm.lifetime.end.p0(i64 1, ptr %3) #7
  %47 = load i32, ptr %4, align 4
  switch i32 %47, label %49 [
    i32 0, label %48
    i32 1, label %48
  ]

48:                                               ; preds = %46, %46
  ret void

49:                                               ; preds = %46
  unreachable
}