; Function Attrs: nounwind uwtable
define hidden void @BN_clear_free(ptr noundef %0) local_unnamed_addr #0 {
  %2 = icmp eq ptr %0, null
  br i1 %2, label %21, label %3

3:                                                ; preds = %1
  %4 = load ptr, ptr %0, align 8, !tbaa !13
  %.not = icmp eq ptr %4, null
  br i1 %.not, label %16, label %5

5:                                                ; preds = %3
  %6 = getelementptr inbounds nuw i8, ptr %0, i64 12
  %7 = load i32, ptr %6, align 4, !tbaa !14
  %8 = sext i32 %7 to i64
  %9 = shl nsw i64 %8, 3
  tail call void @OPENSSL_cleanse(ptr noundef nonnull %4, i64 noundef %9) #14
  %10 = getelementptr inbounds nuw i8, ptr %0, i64 20
  %11 = load i32, ptr %10, align 4, !tbaa !6
  %12 = and i32 %11, 2
  %13 = icmp eq i32 %12, 0
  br i1 %13, label %14, label %16

14:                                               ; preds = %5
  %15 = load ptr, ptr %0, align 8, !tbaa !13
  tail call void @free(ptr noundef %15) #14
  br label %16

16:                                               ; preds = %5, %14, %3
  %17 = getelementptr inbounds nuw i8, ptr %0, i64 20
  %18 = load i32, ptr %17, align 4, !tbaa !6
  tail call void @OPENSSL_cleanse(ptr noundef nonnull %0, i64 noundef 24) #14
  %19 = and i32 %18, 1
  %.not10 = icmp eq i32 %19, 0
  br i1 %.not10, label %21, label %20

20:                                               ; preds = %16
  tail call void @free(ptr noundef nonnull %0) #14
  br label %21

21:                                               ; preds = %16, %20, %1
  ret void
}